target datalayout = "e-m:e-p270:32:32-p271:32:32-p272:64:64-i64:64-i128:128-f80:128-n8:16:32:64-S128"
target triple = "x86_64-pc-linux-gnu"

%struct.uv_udp_s = type { ptr, ptr, i32, ptr, %struct.uv__queue, %union.anon, ptr, i32, i64, i64, ptr, ptr, %struct.uv__io_s, %struct.uv__queue, %struct.uv__queue }
%union.anon = type { [4 x ptr] }
%struct.uv__io_s = type { ptr, %struct.uv__queue, %struct.uv__queue, i32, i32, i32 }
%struct.uv__queue = type { ptr, ptr }

; Function Attrs: nounwind uwtable
define internal i32 @uv__sock_reuseaddr(i32 noundef %0) #0 {
  %2 = alloca i32, align 4
  %3 = alloca i32, align 4
  %4 = alloca i32, align 4
  %5 = alloca i32, align 4
  store i32 %0, ptr %3, align 4
  call void @llvm.lifetime.start.p0(i64 4, ptr %4) #10
  store i32 1, ptr %4, align 4
  %6 = load i32, ptr %3, align 4
  %7 = call i32 @setsockopt(i32 noundef %6, i32 noundef 1, i32 noundef 2, ptr noundef %4, i32 noundef 4) #10
  %8 = icmp ne i32 %7, 0
  br i1 %8, label %9, label %13

9:                                                ; preds = %1
  %10 = call ptr @__errno_location() #11
  %11 = load i32, ptr %10, align 4
  %12 = sub nsw i32 0, %11
  store i32 %12, ptr %2, align 4
  store i32 1, ptr %5, align 4
  br label %14

13:                                               ; preds = %1
  store i32 0, ptr %2, align 4
  store i32 1, ptr %5, align 4
  br label %14

14:                                               ; preds = %13, %9
  call void @llvm.lifetime.end.p0(i64 4, ptr %4) #10
  %15 = load i32, ptr %2, align 4
  ret i32 %15
}

; Function Attrs: nounwind uwtable
define dso_local i32 @uv_udp_open(ptr noundef %0, i32 noundef %1) #0 {
  %3 = alloca i32, align 4
  %4 = alloca ptr, align 8
  %5 = alloca i32, align 4
  %6 = alloca i32, align 4
  %7 = alloca i32, align 4
  store ptr %0, ptr %4, align 8
  store i32 %1, ptr %5, align 4
  call void @llvm.lifetime.start.p0(i64 4, ptr %6) #10
  %8 = load ptr, ptr %4, align 8
  %9 = getelementptr inbounds nuw %struct.uv_udp_s, ptr %8, i32 0, i32 12
  %10 = getelementptr inbounds nuw %struct.uv__io_s, ptr %9, i32 0, i32 5
  %11 = load i32, ptr %10, align 8
  %12 = icmp ne i32 %11, -1
  br i1 %12, label %13, label %14

13:                                               ; preds = %2
  store i32 -16, ptr %3, align 4
  store i32 1, ptr %7, align 4
  br label %50

14:                                               ; preds = %2
  %15 = load ptr, ptr %4, align 8
  %16 = getelementptr inbounds nuw %struct.uv_udp_s, ptr %15, i32 0, i32 1
  %17 = load ptr, ptr %16, align 8
  %18 = load i32, ptr %5, align 4
  %19 = call i32 @uv__fd_exists(ptr noundef %17, i32 noundef %18)
  %20 = icmp ne i32 %19, 0
  br i1 %20, label %21, label %22

21:                                               ; preds = %14
  store i32 -17, ptr %3, align 4
  store i32 1, ptr %7, align 4
  br label %50

22:                                               ; preds = %14
  %23 = load i32, ptr %5, align 4
  %24 = call i32 @uv__nonblock_ioctl(i32 noundef %23, i32 noundef 1)
  store i32 %24, ptr %6, align 4
  %25 = load i32, ptr %6, align 4
  %26 = icmp ne i32 %25, 0
  br i1 %26, label %27, label %29

27:                                               ; preds = %22
  %28 = load i32, ptr %6, align 4
  store i32 %28, ptr %3, align 4
  store i32 1, ptr %7, align 4
  br label %50

29:                                               ; preds = %22
  %30 = load i32, ptr %5, align 4
  %31 = call i32 @uv__sock_reuseaddr(i32 noundef %30)
  store i32 %31, ptr %6, align 4
  %32 = load i32, ptr %6, align 4
  %33 = icmp ne i32 %32, 0
  br i1 %33, label %34, label %36

34:                                               ; preds = %29
  %35 = load i32, ptr %6, align 4
  store i32 %35, ptr %3, align 4
  store i32 1, ptr %7, align 4
  br label %50

36:                                               ; preds = %29
  %37 = load i32, ptr %5, align 4
  %38 = load ptr, ptr %4, align 8
  %39 = getelementptr inbounds nuw %struct.uv_udp_s, ptr %38, i32 0, i32 12
  %40 = getelementptr inbounds nuw %struct.uv__io_s, ptr %39, i32 0, i32 5
  store i32 %37, ptr %40, align 8
  %41 = load ptr, ptr %4, align 8
  %42 = call i32 @uv__udp_is_connected(ptr noundef %41)
  %43 = icmp ne i32 %42, 0
  br i1 %43, label %44, label %49

44:                                               ; preds = %36
  %45 = load ptr, ptr %4, align 8
  %46 = getelementptr inbounds nuw %struct.uv_udp_s, ptr %45, i32 0, i32 7
  %47 = load i32, ptr %46, align 8
  %48 = or i32 %47, 33554432
  store i32 %48, ptr %46, align 8
  br label %49

49:                                               ; preds = %44, %36
  store i32 0, ptr %3, align 4
  store i32 1, ptr %7, align 4
  br label %50

50:                                               ; preds = %49, %34, %27, %21, %13
  call void @llvm.lifetime.end.p0(i64 4, ptr %6) #10
  %51 = load i32, ptr %3, align 4
  ret i32 %51
}