; Function Attrs: nounwind uwtable
define dso_local i32 @uv_udp_open(ptr noundef %0, i32 noundef %1) local_unnamed_addr #0 {
  %3 = alloca i32, align 4
  %4 = getelementptr inbounds nuw i8, ptr %0, i64 176
  %5 = load i32, ptr %4, align 8
  %.not = icmp eq i32 %5, -1
  br i1 %.not, label %6, label %23

6:                                                ; preds = %2
  %7 = getelementptr inbounds nuw i8, ptr %0, i64 8
  %8 = load ptr, ptr %7, align 8
  %9 = tail call i32 @uv__fd_exists(ptr noundef %8, i32 noundef %1) #10
  %.not15 = icmp eq i32 %9, 0
  br i1 %.not15, label %10, label %23

10:                                               ; preds = %6
  %11 = tail call i32 @uv__nonblock_ioctl(i32 noundef %1, i32 noundef 1) #10
  %.not16 = icmp eq i32 %11, 0
  br i1 %.not16, label %12, label %23

12:                                               ; preds = %10
  call void @llvm.lifetime.start.p0(i64 4, ptr nonnull %3) #10
  store i32 1, ptr %3, align 4
  %13 = call i32 @setsockopt(i32 noundef %1, i32 noundef 1, i32 noundef 2, ptr noundef nonnull %3, i32 noundef 4) #10
  %.not.i = icmp eq i32 %13, 0
  br i1 %.not.i, label %uv__sock_reuseaddr.exit.thread, label %uv__sock_reuseaddr.exit

uv__sock_reuseaddr.exit.thread:                   ; preds = %12
  call void @llvm.lifetime.end.p0(i64 4, ptr nonnull %3) #10
  br label %17

uv__sock_reuseaddr.exit:                          ; preds = %12
  %14 = tail call ptr @__errno_location() #11
  %15 = load i32, ptr %14, align 4
  %16 = sub nsw i32 0, %15
  call void @llvm.lifetime.end.p0(i64 4, ptr nonnull %3) #10
  %.not17 = icmp eq i32 %15, 0
  br i1 %.not17, label %17, label %23

17:                                               ; preds = %uv__sock_reuseaddr.exit.thread, %uv__sock_reuseaddr.exit
  store i32 %1, ptr %4, align 8
  %18 = call i32 @uv__udp_is_connected(ptr noundef nonnull %0) #10
  %.not18 = icmp eq i32 %18, 0
  br i1 %.not18, label %23, label %19

19:                                               ; preds = %17
  %20 = getelementptr inbounds nuw i8, ptr %0, i64 88
  %21 = load i32, ptr %20, align 8
  %22 = or i32 %21, 33554432
  store i32 %22, ptr %20, align 8
  br label %23

23:                                               ; preds = %17, %19, %uv__sock_reuseaddr.exit, %10, %6, %2
  %.0 = phi i32 [ -16, %2 ], [ -17, %6 ], [ %11, %10 ], [ %16, %uv__sock_reuseaddr.exit ], [ 0, %19 ], [ 0, %17 ]
  ret i32 %.0
}